LINK : warning L4021: no stack segment

 Start  Stop   Length Name                   Class
 00000H 00616H 00617H CODE                   CODE
 00617H 00617H 00000H ENDCODE                ENDCODE
 00620H 0171FH 01100H RCODE_ALIGN            RCODE
 01720H 02692H 00F73H RCODE                  RCODE
 026A0H 027AFH 00110H RESUMECODE             RESUMECODE
 027B0H 031DFH 00A30H RESBIOS                RESBIOS
 031E0H 03905H 00726H ICODE                  ICODE
 03910H 0391FH 00010H IDATA                  IDATA
 03920H 064F5H 02BD6H INITCODE               INITCODE
 06500H 06637H 00138H STACKS                 STACKS
 06640H 079A6H 01367H INITDATA               INITDATA
 079B0H 07A1FH 00070H INITPSP                INITDATA
 07A20H 07B9DH 0017EH INITENV                INITDATA
 07BA0H 07BA0H 00000H DATAEND                INITDATA

 Origin   Group
 0000:0   CGROUP

  Address         Publics by Name

 0000:0000       A20ENABLE
 0000:4043       ALLOCHMA
 0000:417C       ALLOC_HISEG
 0000:414F       ALLOC_INSTSEG
 0000:41A4       ALLOC_SEG
 0000:77C4       BAD_BREAK
 0000:77EA       BAD_BUFFERS
 0000:7746       BAD_COMMAND
 0000:7931       BAD_COUNTRY
 0000:787F       BAD_DRIVPARM
 0000:7948       BAD_EXEC
 0000:782E       BAD_FCBS
 0000:776B       BAD_FILENAME
 0000:7806       BAD_FILES
 0000:7848       BAD_FOPEN
 0000:78E8       BAD_HISTORY
 0000:779A       BAD_LASTDRIVE
 0000:7781       BAD_SHELL
 0000:396E       BIOSINIT
 0000:7BA0       BIOSINIT_END
 0000:66B8       BIOS_SEG
 0000:667A       BIOS_TARGET_SEG
 0000:6C08       BLKDEV_TABLE
 0000:474E       BLOCK_DEVICE
 0000:6BE7       BOOT_DEVICE
 0000:6BEB       BOOT_DRV
 0000:7B80       BOOT_OPTIONS
 0000:0434       BPB160
 0000:0491       BPB360
 0000:04CF       BPB720
 0000:31E0       BPBS
 0000:0537       BPBTBL
 0000:6BE2       BUFFERSIN
 0000:4BCA       BUILD_CMD_TAIL
 0000:7203       CFG_FILE
 0000:724F       CFG_FILE_END
 0000:001A       CLEANUP
 0000:6BF0       CLKDEV_OFF
 0000:6BF2       CLKDEV_SEG
 0000:17DC       CLOCKTABLE
 0000:669C       CODE_PAGE
 0000:668F       COMSPEC_DRV
 0000:6BF4       CONDEV_OFF
 0000:6BF6       CONDEV_SEG
 0000:443B       CONFIG
 0000:4978       CONFIG_FINISH
 0000:4400       CONFIG_INIT
 0000:4C50       CONFIG_PROCESS
 0000:1900       CONSOLETABLE
 0000:022A       CONTROLBREAK
 0000:669A       COUNTRY_CODE
 0000:4401       COUNTRY_INIT
 0000:5A4A       CRLF
 0000:7175       CTRY_INFO
 0000:6676       CURRENT_DOS
 0000:1722       DATASEGMENT
 0000:0232       DAYCOUNT
 0000:7171       DBCS_TBL
 0000:0184       DEBLOCKSEG
 0000:71CA       DEBLOCKSETBYUSER
 0000:461C       DEVICE_INIT
 0000:4947       DEVICE_INSERT
 0000:6684       DEVICE_ROOT
 0000:6BE3       DEV_COUNT
 0000:6D6C       DEV_EPB
 0000:6D6C       DEV_LOAD_SEG
 0000:6D1C       DEV_NAME
 0000:6D6E       DEV_RELOC_SEG
 0000:1B97       DISKTABLE
 0000:262A       DISK_MSGA
 0000:2647       DISK_MSGB
 0000:266E       DIV_BY_ZERO_MSG
 0000:7A00       DOSVERSION
 0000:66BC       DOS_DSEG
 0000:798F       DOS_MSG
 0000:669E       DOS_NAME
 0000:6678       DOS_TARGET_SEG
 0000:61E3       DOS_VERSION_CHECK
 0000:6664       DRDOS_PTR
 0000:1724       DRIVERFUNCTION
 0000:0602       ENDBIOS
 0000:668A       EXT_MEM_SIZE
 0000:020C       FASTCONSOLE
 0000:6660       FUNC52_PTR
 0000:66D0       HIDOS
 0000:6ADA       HISTORY_FLG
 0000:6ADB       HISTORY_SIZE
 0000:3F43       HOOKINT2F
 0000:00B4       I13OFF_SAVE
 0000:00B4       I13POINTER
 0000:00B6       I13SEG_SAVE
 0000:0610       I13_AX
 0000:6670       ICODE_LEN
 0000:31F4       INIT0
 0000:6420       INITSTACKS
 0000:6BE0       INIT_BUF
 0000:668E       INIT_DRV
 0000:66BA       INIT_DSEG
 0000:668C       INIT_FLAGS
 0000:391A       INIT_RUNIT
 0000:46D2       INIT_STATIC_REQUEST
 0000:1A11       INT13DEBLOCK
 0000:01C0       INT13TRAP
 0000:1A04       INT13UNSURE
 0000:1B2D       INT2FHANDLER
 0000:01F7       INT2FTRAP
 0000:01B6       INTDISKTABLE
 0000:6CF6       INTERRUPT
 0000:6CF6       INTERRUPT_OFF
 0000:6CF8       INTERRUPT_SEG
 0000:66D5       LAST_DRV
 0000:0537       LAYOUT_TABLE
 0000:0234       LOCAL_BUFFER
 0000:0600       LOCAL_CHAR
 0000:0601       LOCAL_FLAG
 0000:0432       LOCAL_ID
 0000:052C       LOCAL_PARMS
 0000:03F2       LOCAL_PT
 0000:6BEE       MAX_CLSIZE
 0000:6BEC       MAX_SECSIZE
 0000:66C2       MEM_CURRENT
 0000:66C0       MEM_CURRENT_BASE
 0000:66C4       MEM_MAX
 0000:6688       MEM_SIZE
 0000:0008  Abs  NBPBS
 0000:6BE4       NEXT_DRV
 0000:5EF0       NLS_HOOK
 0000:6D70       NLS_TEMP_AREA
 0000:5F0C       NLS_UNHOOK
 0000:7743       NO_CHAR
 0000:0178       NUMDISKUNITS
 0000:6BE5       NUM_BLKDEV
 0000:6696       NUM_FCBS
 0000:6694       NUM_FILES
 0000:6698       NUM_FOPEN
 0000:6BE1       NUM_READ_AHEAD_BUF
 0000:6690       NUM_STACKS
 0000:0106       ORGINT13
 0000:0533       PARMS_GPL
 0000:0530       PARMS_SPT
 0000:71D2       PRELOAD_DRV
 0000:6674       RCODE_FIXUPS
 0000:6672       RCODE_LEN
 0000:666C       RCODE_OFFSET
 0000:666E       RCODE_SEG
 0000:6132       READ_DOS
 0000:18E0       READ_SYSTEM_TICKS
 0000:6C06       REL_UNIT
 0000:6CFE       REQUEST_HDR
 0000:00B8       REQ_OFF
 0000:00B8       REQ_PTR
 0000:00BA       REQ_SEG
 0000:6C00       RESDEV_CHAIN
 0000:462F       RESIDENT_DEVICE_INIT
 0000:26A0       RESUMEHANDLER
 0000:6668       RES_DDSC_PTR
 0000:6D70       SECTOR_BUFFER
 0000:001F       SERPARCHAR
 0000:24CE       SERPARCOMMONTABLE
 0000:001B       SERPARFLAG
 0000:40B8       SETUPHMA
 0000:48AE       SETUP_LDT
 0000:45C2       SETUP_STACKS
 0000:7A22       SHELL
 0000:670F       SHELL_CLINE
 0000:6692       STACK_SIZE
 0000:267F       STARTING_DOS_MSG
 0000:00BC       STRAT
 0000:6CF2       STRATEGY
 0000:6CF2       STRATEGY_OFF
 0000:6CF4       STRATEGY_SEG
 0000:3F68       UNHOOKINT2F
 0000:43E8       VERIFY386
 0000:4BBF       WHITESPACE
 0000:7740       YES_CHAR
 0000:77C4       _BAD_BREAK
 0000:77EA       _BAD_BUFFERS
 0000:7746       _BAD_COMMAND
 0000:7931       _BAD_COUNTRY
 0000:787F       _BAD_DRIVPARM
 0000:7948       _BAD_EXEC
 0000:782E       _BAD_FCBS
 0000:776B       _BAD_FILENAME
 0000:7806       _BAD_FILES
 0000:7848       _BAD_FOPEN
 0000:78E8       _BAD_HISTORY
 0000:779A       _BAD_LASTDRIVE
 0000:7781       _BAD_SHELL
 0000:262A       _DISK_MSGA
 0000:2647       _DISK_MSGB
 0000:266E       _DIV_BY_ZERO_MSG
 0000:798F       _DOS_MSG
 0000:7743       _NO_CHAR
 0000:267F       _STARTING_DOS_MSG
 0000:7740       _YES_CHAR

  Address         Publics by Value

 0000:0000       A20ENABLE
 0000:0008  Abs  NBPBS
 0000:001A       CLEANUP
 0000:001B       SERPARFLAG
 0000:001F       SERPARCHAR
 0000:00B4       I13OFF_SAVE
 0000:00B4       I13POINTER
 0000:00B6       I13SEG_SAVE
 0000:00B8       REQ_PTR
 0000:00B8       REQ_OFF
 0000:00BA       REQ_SEG
 0000:00BC       STRAT
 0000:0106       ORGINT13
 0000:0178       NUMDISKUNITS
 0000:0184       DEBLOCKSEG
 0000:01B6       INTDISKTABLE
 0000:01C0       INT13TRAP
 0000:01F7       INT2FTRAP
 0000:020C       FASTCONSOLE
 0000:022A       CONTROLBREAK
 0000:0232       DAYCOUNT
 0000:0234       LOCAL_BUFFER
 0000:03F2       LOCAL_PT
 0000:0432       LOCAL_ID
 0000:0434       BPB160
 0000:0491       BPB360
 0000:04CF       BPB720
 0000:052C       LOCAL_PARMS
 0000:0530       PARMS_SPT
 0000:0533       PARMS_GPL
 0000:0537       LAYOUT_TABLE
 0000:0537       BPBTBL
 0000:0600       LOCAL_CHAR
 0000:0601       LOCAL_FLAG
 0000:0602       ENDBIOS
 0000:0610       I13_AX
 0000:1722       DATASEGMENT
 0000:1724       DRIVERFUNCTION
 0000:17DC       CLOCKTABLE
 0000:18E0       READ_SYSTEM_TICKS
 0000:1900       CONSOLETABLE
 0000:1A04       INT13UNSURE
 0000:1A11       INT13DEBLOCK
 0000:1B2D       INT2FHANDLER
 0000:1B97       DISKTABLE
 0000:24CE       SERPARCOMMONTABLE
 0000:262A       DISK_MSGA
 0000:262A       _DISK_MSGA
 0000:2647       DISK_MSGB
 0000:2647       _DISK_MSGB
 0000:266E       _DIV_BY_ZERO_MSG
 0000:266E       DIV_BY_ZERO_MSG
 0000:267F       _STARTING_DOS_MSG
 0000:267F       STARTING_DOS_MSG
 0000:26A0       RESUMEHANDLER
 0000:31E0       BPBS
 0000:31F4       INIT0
 0000:391A       INIT_RUNIT
 0000:396E       BIOSINIT
 0000:3F43       HOOKINT2F
 0000:3F68       UNHOOKINT2F
 0000:4043       ALLOCHMA
 0000:40B8       SETUPHMA
 0000:414F       ALLOC_INSTSEG
 0000:417C       ALLOC_HISEG
 0000:41A4       ALLOC_SEG
 0000:43E8       VERIFY386
 0000:4400       CONFIG_INIT
 0000:4401       COUNTRY_INIT
 0000:443B       CONFIG
 0000:45C2       SETUP_STACKS
 0000:461C       DEVICE_INIT
 0000:462F       RESIDENT_DEVICE_INIT
 0000:46D2       INIT_STATIC_REQUEST
 0000:474E       BLOCK_DEVICE
 0000:48AE       SETUP_LDT
 0000:4947       DEVICE_INSERT
 0000:4978       CONFIG_FINISH
 0000:4BBF       WHITESPACE
 0000:4BCA       BUILD_CMD_TAIL
 0000:4C50       CONFIG_PROCESS
 0000:5A4A       CRLF
 0000:5EF0       NLS_HOOK
 0000:5F0C       NLS_UNHOOK
 0000:6132       READ_DOS
 0000:61E3       DOS_VERSION_CHECK
 0000:6420       INITSTACKS
 0000:6660       FUNC52_PTR
 0000:6664       DRDOS_PTR
 0000:6668       RES_DDSC_PTR
 0000:666C       RCODE_OFFSET
 0000:666E       RCODE_SEG
 0000:6670       ICODE_LEN
 0000:6672       RCODE_LEN
 0000:6674       RCODE_FIXUPS
 0000:6676       CURRENT_DOS
 0000:6678       DOS_TARGET_SEG
 0000:667A       BIOS_TARGET_SEG
 0000:6684       DEVICE_ROOT
 0000:6688       MEM_SIZE
 0000:668A       EXT_MEM_SIZE
 0000:668C       INIT_FLAGS
 0000:668E       INIT_DRV
 0000:668F       COMSPEC_DRV
 0000:6690       NUM_STACKS
 0000:6692       STACK_SIZE
 0000:6694       NUM_FILES
 0000:6696       NUM_FCBS
 0000:6698       NUM_FOPEN
 0000:669A       COUNTRY_CODE
 0000:669C       CODE_PAGE
 0000:669E       DOS_NAME
 0000:66B8       BIOS_SEG
 0000:66BA       INIT_DSEG
 0000:66BC       DOS_DSEG
 0000:66C0       MEM_CURRENT_BASE
 0000:66C2       MEM_CURRENT
 0000:66C4       MEM_MAX
 0000:66D0       HIDOS
 0000:66D5       LAST_DRV
 0000:670F       SHELL_CLINE
 0000:6ADA       HISTORY_FLG
 0000:6ADB       HISTORY_SIZE
 0000:6BE0       INIT_BUF
 0000:6BE1       NUM_READ_AHEAD_BUF
 0000:6BE2       BUFFERSIN
 0000:6BE3       DEV_COUNT
 0000:6BE4       NEXT_DRV
 0000:6BE5       NUM_BLKDEV
 0000:6BE7       BOOT_DEVICE
 0000:6BEB       BOOT_DRV
 0000:6BEC       MAX_SECSIZE
 0000:6BEE       MAX_CLSIZE
 0000:6BF0       CLKDEV_OFF
 0000:6BF2       CLKDEV_SEG
 0000:6BF4       CONDEV_OFF
 0000:6BF6       CONDEV_SEG
 0000:6C00       RESDEV_CHAIN
 0000:6C06       REL_UNIT
 0000:6C08       BLKDEV_TABLE
 0000:6CF2       STRATEGY
 0000:6CF2       STRATEGY_OFF
 0000:6CF4       STRATEGY_SEG
 0000:6CF6       INTERRUPT_OFF
 0000:6CF6       INTERRUPT
 0000:6CF8       INTERRUPT_SEG
 0000:6CFE       REQUEST_HDR
 0000:6D1C       DEV_NAME
 0000:6D6C       DEV_LOAD_SEG
 0000:6D6C       DEV_EPB
 0000:6D6E       DEV_RELOC_SEG
 0000:6D70       NLS_TEMP_AREA
 0000:6D70       SECTOR_BUFFER
 0000:7171       DBCS_TBL
 0000:7175       CTRY_INFO
 0000:71CA       DEBLOCKSETBYUSER
 0000:71D2       PRELOAD_DRV
 0000:7203       CFG_FILE
 0000:724F       CFG_FILE_END
 0000:7740       YES_CHAR
 0000:7740       _YES_CHAR
 0000:7743       _NO_CHAR
 0000:7743       NO_CHAR
 0000:7746       _BAD_COMMAND
 0000:7746       BAD_COMMAND
 0000:776B       _BAD_FILENAME
 0000:776B       BAD_FILENAME
 0000:7781       _BAD_SHELL
 0000:7781       BAD_SHELL
 0000:779A       BAD_LASTDRIVE
 0000:779A       _BAD_LASTDRIVE
 0000:77C4       _BAD_BREAK
 0000:77C4       BAD_BREAK
 0000:77EA       BAD_BUFFERS
 0000:77EA       _BAD_BUFFERS
 0000:7806       _BAD_FILES
 0000:7806       BAD_FILES
 0000:782E       BAD_FCBS
 0000:782E       _BAD_FCBS
 0000:7848       BAD_FOPEN
 0000:7848       _BAD_FOPEN
 0000:787F       _BAD_DRIVPARM
 0000:787F       BAD_DRIVPARM
 0000:78E8       _BAD_HISTORY
 0000:78E8       BAD_HISTORY
 0000:7931       _BAD_COUNTRY
 0000:7931       BAD_COUNTRY
 0000:7948       _BAD_EXEC
 0000:7948       BAD_EXEC
 0000:798F       _DOS_MSG
 0000:798F       DOS_MSG
 0000:7A00       DOSVERSION
 0000:7A22       SHELL
 0000:7B80       BOOT_OPTIONS
 0000:7BA0       BIOSINIT_END

Program entry point at 0000:0000
